---
triple:          'arm64-apple-darwin'
binary-path:     '/Users/rhy/Desktop/Workspace/COSC2947/Project1/GameOfLife'
relocations:
  - { offsetInCU: 0x3054, offset: 0x3054, size: 0x8, addend: 0x0, symName: __ZNSt3__124__put_character_sequenceB7v160006IcNS_11char_traitsIcEEEERNS_13basic_ostreamIT_T0_EES7_PKS4_m, symObjAddr: 0x132C, symBinAddr: 0x100002588, symSize: 0x1EC }
  - { offsetInCU: 0x4800, offset: 0x4800, size: 0x8, addend: 0x0, symName: __ZNSt3__16chronogtB7v160006IxNS_5ratioILl1ELl1000EEExS3_EEbRKNS0_8durationIT_T0_EERKNS4_IT1_T2_EE, symObjAddr: 0x1EB8, symBinAddr: 0x100003114, symSize: 0x30 }
  - { offsetInCU: 0x4861, offset: 0x4861, size: 0x8, addend: 0x0, symName: __ZNSt3__16chronoltB7v160006IxNS_5ratioILl1ELl1000EEEeNS2_ILl1ELl1EEEEEbRKNS0_8durationIT_T0_EERKNS5_IT1_T2_EE, symObjAddr: 0x1F24, symBinAddr: 0x100003180, symSize: 0x34 }
  - { offsetInCU: 0x48C2, offset: 0x48C2, size: 0x8, addend: 0x0, symName: __ZNSt3__16chrono13duration_castB7v160006INS0_8durationIxNS_5ratioILl1ELl1000000000EEEEExNS3_ILl1ELl1000EEEEENS_9enable_ifIXsr13__is_durationIT_EE5valueES8_E4typeERKNS2_IT0_T1_EE, symObjAddr: 0x1F58, symBinAddr: 0x1000031B4, symSize: 0x30 }
  - { offsetInCU: 0x4909, offset: 0x4909, size: 0x8, addend: 0x0, symName: __ZNSt3__16chronoltB7v160006IxNS_5ratioILl1ELl1000000000EEExNS2_ILl1ELl1000EEEEEbRKNS0_8durationIT_T0_EERKNS5_IT1_T2_EE, symObjAddr: 0x1F88, symBinAddr: 0x1000031E4, symSize: 0x34 }
  - { offsetInCU: 0x496A, offset: 0x496A, size: 0x8, addend: 0x0, symName: __ZNSt3__16chronoltB7v160006IxNS_5ratioILl1ELl1000EEExS3_EEbRKNS0_8durationIT_T0_EERKNS4_IT1_T2_EE, symObjAddr: 0x2018, symBinAddr: 0x100003274, symSize: 0x34 }
  - { offsetInCU: 0x4A48, offset: 0x4A48, size: 0x8, addend: 0x0, symName: __ZNSt3__16chrono13duration_castB7v160006INS0_8durationIeNS_5ratioILl1ELl1000EEEEExS4_EENS_9enable_ifIXsr13__is_durationIT_EE5valueES7_E4typeERKNS2_IT0_T1_EE, symObjAddr: 0x226C, symBinAddr: 0x1000034C8, symSize: 0x30 }
  - { offsetInCU: 0x4ADA, offset: 0x4ADA, size: 0x8, addend: 0x0, symName: __ZNSt3__16chrono13duration_castB7v160006INS0_8durationIeNS_5ratioILl1ELl1000EEEEEeNS3_ILl1ELl1EEEEENS_9enable_ifIXsr13__is_durationIT_EE5valueES8_E4typeERKNS2_IT0_T1_EE, symObjAddr: 0x238C, symBinAddr: 0x1000035E8, symSize: 0x30 }
  - { offsetInCU: 0x5D6E, offset: 0x5D6E, size: 0x8, addend: 0x0, symName: __ZNSt3__1lsB7v160006INS_11char_traitsIcEEEERNS_13basic_ostreamIcT_EES6_PKc, symObjAddr: 0x674, symBinAddr: 0x1000018D0, symSize: 0x48 }
  - { offsetInCU: 0x5DB4, offset: 0x5DB4, size: 0x8, addend: 0x0, symName: __ZNSt3__14endlB7v160006IcNS_11char_traitsIcEEEERNS_13basic_ostreamIT_T0_EES7_, symObjAddr: 0x6E8, symBinAddr: 0x100001944, symSize: 0x58 }
  - { offsetInCU: 0x5FE3, offset: 0x5FE3, size: 0x8, addend: 0x0, symName: __ZNSt3__111this_thread9sleep_forB7v160006IxNS_5ratioILl1ELl1000EEEEEvRKNS_6chrono8durationIT_T0_EE, symObjAddr: 0xF58, symBinAddr: 0x1000021B4, symSize: 0xBC }
  - { offsetInCU: 0x604C, offset: 0x604C, size: 0x8, addend: 0x0, symName: __ZNSt3__1rsB7v160006IcNS_11char_traitsIcEEEERNS_13basic_istreamIT_T0_EES7_RS4_, symObjAddr: 0x1194, symBinAddr: 0x1000023F0, symSize: 0x190 }
  - { offsetInCU: 0x60CE, offset: 0x60CE, size: 0x8, addend: 0x0, symName: __ZNSt3__116__pad_and_outputB7v160006IcNS_11char_traitsIcEEEENS_19ostreambuf_iteratorIT_T0_EES6_PKS4_S8_S8_RNS_8ios_baseES4_, symObjAddr: 0x1568, symBinAddr: 0x1000027C4, symSize: 0x240 }
  - { offsetInCU: 0x619D, offset: 0x619D, size: 0x8, addend: 0x0, symName: __ZNSt3__119__debug_db_insert_cB7v160006INS_12basic_stringIcNS_11char_traitsIcEENS_9allocatorIcEEEEEEvPT_, symObjAddr: 0x1A28, symBinAddr: 0x100002C84, symSize: 0x10 }
  - { offsetInCU: 0x61CE, offset: 0x61CE, size: 0x8, addend: 0x0, symName: __ZNSt3__112__to_addressB7v160006IcEEPT_S2_, symObjAddr: 0x1AF4, symBinAddr: 0x100002D50, symSize: 0x14 }
  - { offsetInCU: 0x6203, offset: 0x6203, size: 0x8, addend: 0x0, symName: __ZNSt3__19use_facetB7v160006INS_5ctypeIcEEEERKT_RKNS_6localeE, symObjAddr: 0x1DAC, symBinAddr: 0x100003008, symSize: 0x2C }
  - { offsetInCU: 0x66D2, offset: 0x66D2, size: 0x8, addend: 0x0, symName: __ZNSt3__118__constexpr_strlenB7v160006EPKc, symObjAddr: 0x1E44, symBinAddr: 0x1000030A0, symSize: 0x24 }
  - { offsetInCU: 0x7380, offset: 0x7380, size: 0x8, addend: 0x0, symName: __ZNKSt3__16chrono13__duration_ltINS0_8durationIxNS_5ratioILl1ELl1000EEEEENS2_IeNS3_ILl1ELl1EEEEEEclB7v160006ERKS5_RKS7_, symObjAddr: 0x211C, symBinAddr: 0x100003378, symSize: 0x78 }
  - { offsetInCU: 0x73FB, offset: 0x73FB, size: 0x8, addend: 0x0, symName: __ZNKSt3__16chrono15__duration_castINS0_8durationIeNS_5ratioILl1ELl1EEEEENS2_IeNS3_ILl1ELl1000EEEEENS3_ILl1000ELl1EEELb0ELb1EEclB7v160006ERKS5_, symObjAddr: 0x23BC, symBinAddr: 0x100003618, symSize: 0x4C }
  - { offsetInCU: 0x7465, offset: 0x7465, size: 0x8, addend: 0x0, symName: __ZNKSt3__16chrono15__duration_castINS0_8durationIxNS_5ratioILl1ELl1000EEEEENS2_IxNS3_ILl1ELl1000000000EEEEENS3_ILl1000000ELl1EEELb0ELb1EEclB7v160006ERKS5_, symObjAddr: 0x2420, symBinAddr: 0x10000367C, symSize: 0x4C }
  - { offsetInCU: 0x74AC, offset: 0x74AC, size: 0x8, addend: 0x0, symName: __ZNKSt3__16chrono13__duration_ltINS0_8durationIxNS_5ratioILl1ELl1000000000EEEEENS2_IxNS3_ILl1ELl1000EEEEEEclB7v160006ERKS5_RKS7_, symObjAddr: 0x24D0, symBinAddr: 0x10000372C, symSize: 0x6C }
  - { offsetInCU: 0x967A, offset: 0x967A, size: 0x8, addend: 0x0, symName: _main, symObjAddr: 0x0, symBinAddr: 0x10000125C, symSize: 0xB0 }
  - { offsetInCU: 0x96D7, offset: 0x96D7, size: 0x8, addend: 0x0, symName: __Z12getUserInputRiS_S_, symObjAddr: 0xB0, symBinAddr: 0x10000130C, symSize: 0x338 }
  - { offsetInCU: 0x972B, offset: 0x972B, size: 0x8, addend: 0x0, symName: __Z15initializeBoardPA50_bii, symObjAddr: 0x3E8, symBinAddr: 0x100001644, symSize: 0x144 }
  - { offsetInCU: 0x97C7, offset: 0x97C7, size: 0x8, addend: 0x0, symName: __Z8gameLoopPA50_biii, symObjAddr: 0x52C, symBinAddr: 0x100001788, symSize: 0xB4 }
  - { offsetInCU: 0x9828, offset: 0x9828, size: 0x8, addend: 0x0, symName: __Z9playAgainv, symObjAddr: 0x5E0, symBinAddr: 0x10000183C, symSize: 0x94 }
  - { offsetInCU: 0x9856, offset: 0x9856, size: 0x8, addend: 0x0, symName: __ZNSt3__113basic_ostreamIcNS_11char_traitsIcEEElsB7v160006EPFRS3_S4_E, symObjAddr: 0x6BC, symBinAddr: 0x100001918, symSize: 0x2C }
  - { offsetInCU: 0x9888, offset: 0x9888, size: 0x8, addend: 0x0, symName: __ZNKSt3__19basic_iosIcNS_11char_traitsIcEEEcvbB7v160006Ev, symObjAddr: 0x740, symBinAddr: 0x10000199C, symSize: 0x2C }
  - { offsetInCU: 0x98AD, offset: 0x98AD, size: 0x8, addend: 0x0, symName: __ZNSt3__114numeric_limitsIlE3maxB7v160006Ev, symObjAddr: 0x76C, symBinAddr: 0x1000019C8, symSize: 0x14 }
  - { offsetInCU: 0x98C0, offset: 0x98C0, size: 0x8, addend: 0x0, symName: __ZNSt3__19basic_iosIcNS_11char_traitsIcEEE5clearB7v160006Ej, symObjAddr: 0x780, symBinAddr: 0x1000019DC, symSize: 0x2C }
  - { offsetInCU: 0x98F4, offset: 0x98F4, size: 0x8, addend: 0x0, symName: __Z16printStateOfGamePA50_Kbii, symObjAddr: 0x7AC, symBinAddr: 0x100001A08, symSize: 0x238 }
  - { offsetInCU: 0x99AD, offset: 0x99AD, size: 0x8, addend: 0x0, symName: __Z9pauseGamev, symObjAddr: 0x9E4, symBinAddr: 0x100001C40, symSize: 0x2C }
  - { offsetInCU: 0x99E4, offset: 0x99E4, size: 0x8, addend: 0x0, symName: __Z13simGenerationPA50_bii, symObjAddr: 0xA10, symBinAddr: 0x100001C6C, symSize: 0x41C }
  - { offsetInCU: 0x9B16, offset: 0x9B16, size: 0x8, addend: 0x0, symName: __Z19checkGameStateAlivePA50_bii, symObjAddr: 0xE2C, symBinAddr: 0x100002088, symSize: 0x12C }
  - { offsetInCU: 0x9BA7, offset: 0x9BA7, size: 0x8, addend: 0x0, symName: __Z20checkGamestatesEqualPA50_KbS1_ii, symObjAddr: 0x1014, symBinAddr: 0x100002270, symSize: 0x180 }
  - { offsetInCU: 0x9C4C, offset: 0x9C4C, size: 0x8, addend: 0x0, symName: __ZNSt3__123__libcpp_numeric_limitsIlLb1EE3maxB7v160006Ev, symObjAddr: 0x1324, symBinAddr: 0x100002580, symSize: 0x8 }
  - { offsetInCU: 0x9C60, offset: 0x9C60, size: 0x8, addend: 0x0, symName: __ZNSt3__111char_traitsIcE6lengthEPKc, symObjAddr: 0x1518, symBinAddr: 0x100002774, symSize: 0x34 }
  - { offsetInCU: 0x9CA1, offset: 0x9CA1, size: 0x8, addend: 0x0, symName: __ZNKSt3__113basic_ostreamIcNS_11char_traitsIcEEE6sentrycvbB7v160006Ev, symObjAddr: 0x154C, symBinAddr: 0x1000027A8, symSize: 0x1C }
  - { offsetInCU: 0x9CC6, offset: 0x9CC6, size: 0x8, addend: 0x0, symName: __ZNSt3__119ostreambuf_iteratorIcNS_11char_traitsIcEEEC1B7v160006ERNS_13basic_ostreamIcS2_EE, symObjAddr: 0x17A8, symBinAddr: 0x100002A04, symSize: 0x34 }
  - { offsetInCU: 0x9CFD, offset: 0x9CFD, size: 0x8, addend: 0x0, symName: __ZNKSt3__18ios_base5flagsB7v160006Ev, symObjAddr: 0x17DC, symBinAddr: 0x100002A38, symSize: 0x18 }
  - { offsetInCU: 0x9D24, offset: 0x9D24, size: 0x8, addend: 0x0, symName: __ZNKSt3__19basic_iosIcNS_11char_traitsIcEEE4fillB7v160006Ev, symObjAddr: 0x17F4, symBinAddr: 0x100002A50, symSize: 0x64 }
  - { offsetInCU: 0x9D4B, offset: 0x9D4B, size: 0x8, addend: 0x0, symName: __ZNKSt3__119ostreambuf_iteratorIcNS_11char_traitsIcEEE6failedB7v160006Ev, symObjAddr: 0x1858, symBinAddr: 0x100002AB4, symSize: 0x24 }
  - { offsetInCU: 0x9D6F, offset: 0x9D6F, size: 0x8, addend: 0x0, symName: __ZNSt3__19basic_iosIcNS_11char_traitsIcEEE8setstateB7v160006Ej, symObjAddr: 0x187C, symBinAddr: 0x100002AD8, symSize: 0x2C }
  - { offsetInCU: 0x9DA3, offset: 0x9DA3, size: 0x8, addend: 0x0, symName: __ZNKSt3__18ios_base5widthB7v160006Ev, symObjAddr: 0x18B4, symBinAddr: 0x100002B10, symSize: 0x18 }
  - { offsetInCU: 0x9DC9, offset: 0x9DC9, size: 0x8, addend: 0x0, symName: __ZNSt3__115basic_streambufIcNS_11char_traitsIcEEE5sputnB7v160006EPKcl, symObjAddr: 0x18CC, symBinAddr: 0x100002B28, symSize: 0x3C }
  - { offsetInCU: 0x9E0A, offset: 0x9E0A, size: 0x8, addend: 0x0, symName: __ZNSt3__112basic_stringIcNS_11char_traitsIcEENS_9allocatorIcEEEC1B7v160006Emc, symObjAddr: 0x1908, symBinAddr: 0x100002B64, symSize: 0x3C }
  - { offsetInCU: 0x9E50, offset: 0x9E50, size: 0x8, addend: 0x0, symName: __ZNSt3__112basic_stringIcNS_11char_traitsIcEENS_9allocatorIcEEE4dataB7v160006Ev, symObjAddr: 0x1944, symBinAddr: 0x100002BA0, symSize: 0x28 }
  - { offsetInCU: 0x9E75, offset: 0x9E75, size: 0x8, addend: 0x0, symName: __ZNSt3__18ios_base5widthB7v160006El, symObjAddr: 0x196C, symBinAddr: 0x100002BC8, symSize: 0x2C }
  - { offsetInCU: 0x9EBA, offset: 0x9EBA, size: 0x8, addend: 0x0, symName: __ZNSt3__112basic_stringIcNS_11char_traitsIcEENS_9allocatorIcEEEC2B7v160006Emc, symObjAddr: 0x1998, symBinAddr: 0x100002BF4, symSize: 0x54 }
  - { offsetInCU: 0x9F06, offset: 0x9F06, size: 0x8, addend: 0x0, symName: __ZNSt3__117__compressed_pairINS_12basic_stringIcNS_11char_traitsIcEENS_9allocatorIcEEE5__repES5_EC1B7v160006INS_18__default_init_tagESA_EEOT_OT0_, symObjAddr: 0x19EC, symBinAddr: 0x100002C48, symSize: 0x3C }
  - { offsetInCU: 0x9F5D, offset: 0x9F5D, size: 0x8, addend: 0x0, symName: __ZNSt3__117__compressed_pairINS_12basic_stringIcNS_11char_traitsIcEENS_9allocatorIcEEE5__repES5_EC2B7v160006INS_18__default_init_tagESA_EEOT_OT0_, symObjAddr: 0x1A38, symBinAddr: 0x100002C94, symSize: 0x3C }
  - { offsetInCU: 0x9FB4, offset: 0x9FB4, size: 0x8, addend: 0x0, symName: __ZNSt3__122__compressed_pair_elemINS_12basic_stringIcNS_11char_traitsIcEENS_9allocatorIcEEE5__repELi0ELb0EEC2B7v160006ENS_18__default_init_tagE, symObjAddr: 0x1A74, symBinAddr: 0x100002CD0, symSize: 0x14 }
  - { offsetInCU: 0x9FE8, offset: 0x9FE8, size: 0x8, addend: 0x0, symName: __ZNSt3__122__compressed_pair_elemINS_9allocatorIcEELi1ELb1EEC2B7v160006ENS_18__default_init_tagE, symObjAddr: 0x1A88, symBinAddr: 0x100002CE4, symSize: 0x2C }
  - { offsetInCU: 0xA01C, offset: 0xA01C, size: 0x8, addend: 0x0, symName: __ZNSt3__19allocatorIcEC2B7v160006Ev, symObjAddr: 0x1AB4, symBinAddr: 0x100002D10, symSize: 0x2C }
  - { offsetInCU: 0xA045, offset: 0xA045, size: 0x8, addend: 0x0, symName: __ZNSt3__116__non_trivial_ifILb1ENS_9allocatorIcEEEC2B7v160006Ev, symObjAddr: 0x1AE0, symBinAddr: 0x100002D3C, symSize: 0x14 }
  - { offsetInCU: 0xA06D, offset: 0xA06D, size: 0x8, addend: 0x0, symName: __ZNSt3__112basic_stringIcNS_11char_traitsIcEENS_9allocatorIcEEE13__get_pointerB7v160006Ev, symObjAddr: 0x1B08, symBinAddr: 0x100002D64, symSize: 0x54 }
  - { offsetInCU: 0xA091, offset: 0xA091, size: 0x8, addend: 0x0, symName: __ZNKSt3__112basic_stringIcNS_11char_traitsIcEENS_9allocatorIcEEE9__is_longB7v160006Ev, symObjAddr: 0x1B5C, symBinAddr: 0x100002DB8, symSize: 0x38 }
  - { offsetInCU: 0xA0B5, offset: 0xA0B5, size: 0x8, addend: 0x0, symName: __ZNSt3__112basic_stringIcNS_11char_traitsIcEENS_9allocatorIcEEE18__get_long_pointerB7v160006Ev, symObjAddr: 0x1B94, symBinAddr: 0x100002DF0, symSize: 0x28 }
  - { offsetInCU: 0xA0D9, offset: 0xA0D9, size: 0x8, addend: 0x0, symName: __ZNSt3__112basic_stringIcNS_11char_traitsIcEENS_9allocatorIcEEE19__get_short_pointerB7v160006Ev, symObjAddr: 0x1BBC, symBinAddr: 0x100002E18, symSize: 0x28 }
  - { offsetInCU: 0xA0FD, offset: 0xA0FD, size: 0x8, addend: 0x0, symName: __ZNKSt3__117__compressed_pairINS_12basic_stringIcNS_11char_traitsIcEENS_9allocatorIcEEE5__repES5_E5firstB7v160006Ev, symObjAddr: 0x1BE4, symBinAddr: 0x100002E40, symSize: 0x24 }
  - { offsetInCU: 0xA122, offset: 0xA122, size: 0x8, addend: 0x0, symName: __ZNKSt3__122__compressed_pair_elemINS_12basic_stringIcNS_11char_traitsIcEENS_9allocatorIcEEE5__repELi0ELb0EE5__getB7v160006Ev, symObjAddr: 0x1C08, symBinAddr: 0x100002E64, symSize: 0x14 }
  - { offsetInCU: 0xA146, offset: 0xA146, size: 0x8, addend: 0x0, symName: __ZNSt3__117__compressed_pairINS_12basic_stringIcNS_11char_traitsIcEENS_9allocatorIcEEE5__repES5_E5firstB7v160006Ev, symObjAddr: 0x1C1C, symBinAddr: 0x100002E78, symSize: 0x24 }
  - { offsetInCU: 0xA16B, offset: 0xA16B, size: 0x8, addend: 0x0, symName: __ZNSt3__122__compressed_pair_elemINS_12basic_stringIcNS_11char_traitsIcEENS_9allocatorIcEEE5__repELi0ELb0EE5__getB7v160006Ev, symObjAddr: 0x1C40, symBinAddr: 0x100002E9C, symSize: 0x14 }
  - { offsetInCU: 0xA190, offset: 0xA190, size: 0x8, addend: 0x0, symName: __ZNSt3__114pointer_traitsIPcE10pointer_toB7v160006ERc, symObjAddr: 0x1C54, symBinAddr: 0x100002EB0, symSize: 0x14 }
  - { offsetInCU: 0xA1B3, offset: 0xA1B3, size: 0x8, addend: 0x0, symName: __ZNSt3__119ostreambuf_iteratorIcNS_11char_traitsIcEEEC2B7v160006ERNS_13basic_ostreamIcS2_EE, symObjAddr: 0x1C68, symBinAddr: 0x100002EC4, symSize: 0x54 }
  - { offsetInCU: 0xA1EA, offset: 0xA1EA, size: 0x8, addend: 0x0, symName: __ZNKSt3__19basic_iosIcNS_11char_traitsIcEEE5rdbufB7v160006Ev, symObjAddr: 0x1CBC, symBinAddr: 0x100002F18, symSize: 0x24 }
  - { offsetInCU: 0xA211, offset: 0xA211, size: 0x8, addend: 0x0, symName: __ZNKSt3__18ios_base5rdbufB7v160006Ev, symObjAddr: 0x1CE0, symBinAddr: 0x100002F3C, symSize: 0x18 }
  - { offsetInCU: 0xA236, offset: 0xA236, size: 0x8, addend: 0x0, symName: __ZNSt3__111char_traitsIcE11eq_int_typeEii, symObjAddr: 0x1CF8, symBinAddr: 0x100002F54, symSize: 0x28 }
  - { offsetInCU: 0xA267, offset: 0xA267, size: 0x8, addend: 0x0, symName: __ZNSt3__111char_traitsIcE3eofEv, symObjAddr: 0x1D20, symBinAddr: 0x100002F7C, symSize: 0x8 }
  - { offsetInCU: 0xA27B, offset: 0xA27B, size: 0x8, addend: 0x0, symName: __ZNKSt3__19basic_iosIcNS_11char_traitsIcEEE5widenB7v160006Ec, symObjAddr: 0x1D28, symBinAddr: 0x100002F84, symSize: 0x84 }
  - { offsetInCU: 0xA2E7, offset: 0xA2E7, size: 0x8, addend: 0x0, symName: __ZNKSt3__15ctypeIcE5widenB7v160006Ec, symObjAddr: 0x1DD8, symBinAddr: 0x100003034, symSize: 0x38 }
  - { offsetInCU: 0xA31B, offset: 0xA31B, size: 0x8, addend: 0x0, symName: __ZNSt3__18ios_base8setstateB7v160006Ej, symObjAddr: 0x1E10, symBinAddr: 0x10000306C, symSize: 0x34 }
  - { offsetInCU: 0xA350, offset: 0xA350, size: 0x8, addend: 0x0, symName: __ZNKSt3__19basic_iosIcNS_11char_traitsIcEEE4failB7v160006Ev, symObjAddr: 0x1E68, symBinAddr: 0x1000030C4, symSize: 0x28 }
  - { offsetInCU: 0xA375, offset: 0xA375, size: 0x8, addend: 0x0, symName: __ZNKSt3__18ios_base4failB7v160006Ev, symObjAddr: 0x1E90, symBinAddr: 0x1000030EC, symSize: 0x28 }
  - { offsetInCU: 0xA39C, offset: 0xA39C, size: 0x8, addend: 0x0, symName: __ZNSt3__16chrono8durationIxNS_5ratioILl1ELl1000EEEE4zeroB7v160006Ev, symObjAddr: 0x1EE8, symBinAddr: 0x100003144, symSize: 0x3C }
  - { offsetInCU: 0xA3B0, offset: 0xA3B0, size: 0x8, addend: 0x0, symName: __ZNSt3__16chrono8durationIxNS_5ratioILl1ELl1000000000EEEEppB7v160006Ev, symObjAddr: 0x1FBC, symBinAddr: 0x100003218, symSize: 0x20 }
  - { offsetInCU: 0xA3D5, offset: 0xA3D5, size: 0x8, addend: 0x0, symName: __ZNSt3__16chrono8durationIxNS_5ratioILl1ELl1000000000EEEE3maxB7v160006Ev, symObjAddr: 0x1FDC, symBinAddr: 0x100003238, symSize: 0x3C }
  - { offsetInCU: 0xA3F2, offset: 0xA3F2, size: 0x8, addend: 0x0, symName: __ZNKSt3__16chrono13__duration_ltINS0_8durationIxNS_5ratioILl1ELl1000EEEEES5_EclB7v160006ERKS5_S8_, symObjAddr: 0x204C, symBinAddr: 0x1000032A8, symSize: 0x4C }
  - { offsetInCU: 0xA435, offset: 0xA435, size: 0x8, addend: 0x0, symName: __ZNKSt3__16chrono8durationIxNS_5ratioILl1ELl1000EEEE5countB7v160006Ev, symObjAddr: 0x2098, symBinAddr: 0x1000032F4, symSize: 0x18 }
  - { offsetInCU: 0xA45A, offset: 0xA45A, size: 0x8, addend: 0x0, symName: __ZNSt3__16chrono15duration_valuesIxE4zeroB7v160006Ev, symObjAddr: 0x20B0, symBinAddr: 0x10000330C, symSize: 0x8 }
  - { offsetInCU: 0xA47D, offset: 0xA47D, size: 0x8, addend: 0x0, symName: __ZNSt3__16chrono8durationIxNS_5ratioILl1ELl1000EEEEC1B7v160006IxEERKT_PNS_9enable_ifIXaasr14is_convertibleIS8_xEE5valueooL_ZNS_17integral_constantIbLb0EE5valueEEntsr23treat_as_floating_pointIS6_EE5valueEvE4typeE, symObjAddr: 0x20B8, symBinAddr: 0x100003314, symSize: 0x3C }
  - { offsetInCU: 0xA4C9, offset: 0xA4C9, size: 0x8, addend: 0x0, symName: __ZNSt3__16chrono8durationIxNS_5ratioILl1ELl1000EEEEC2B7v160006IxEERKT_PNS_9enable_ifIXaasr14is_convertibleIS8_xEE5valueooL_ZNS_17integral_constantIbLb0EE5valueEEntsr23treat_as_floating_pointIS6_EE5valueEvE4typeE, symObjAddr: 0x20F4, symBinAddr: 0x100003350, symSize: 0x28 }
  - { offsetInCU: 0xA515, offset: 0xA515, size: 0x8, addend: 0x0, symName: __ZNSt3__16chrono8durationIeNS_5ratioILl1ELl1000EEEEC1B7v160006IxS3_EERKNS1_IT_T0_EEPNS_9enable_ifIXaasr13__no_overflowIS7_S3_EE5valueooL_ZNS_17integral_constantIbLb1EE5valueEEaaeqsr13__no_overflowIS7_S3_E4typeE3denLi1Entsr23treat_as_floating_pointIS6_EE5valueEvE4typeE, symObjAddr: 0x2194, symBinAddr: 0x1000033F0, symSize: 0x3C }
  - { offsetInCU: 0xA56B, offset: 0xA56B, size: 0x8, addend: 0x0, symName: __ZNKSt3__16chrono8durationIeNS_5ratioILl1ELl1000EEEE5countB7v160006Ev, symObjAddr: 0x21D0, symBinAddr: 0x10000342C, symSize: 0x18 }
  - { offsetInCU: 0xA590, offset: 0xA590, size: 0x8, addend: 0x0, symName: __ZNSt3__16chrono8durationIeNS_5ratioILl1ELl1000EEEEC1B7v160006IeNS2_ILl1ELl1EEEEERKNS1_IT_T0_EEPNS_9enable_ifIXaasr13__no_overflowIS8_S3_EE5valueooL_ZNS_17integral_constantIbLb1EE5valueEEaaeqsr13__no_overflowIS8_S3_E4typeE3denLi1Entsr23treat_as_floating_pointIS7_EE5valueEvE4typeE, symObjAddr: 0x21E8, symBinAddr: 0x100003444, symSize: 0x3C }
  - { offsetInCU: 0xA5E6, offset: 0xA5E6, size: 0x8, addend: 0x0, symName: __ZNSt3__16chrono8durationIeNS_5ratioILl1ELl1000EEEEC2B7v160006IxS3_EERKNS1_IT_T0_EEPNS_9enable_ifIXaasr13__no_overflowIS7_S3_EE5valueooL_ZNS_17integral_constantIbLb1EE5valueEEaaeqsr13__no_overflowIS7_S3_E4typeE3denLi1Entsr23treat_as_floating_pointIS6_EE5valueEvE4typeE, symObjAddr: 0x2224, symBinAddr: 0x100003480, symSize: 0x48 }
  - { offsetInCU: 0xA645, offset: 0xA645, size: 0x8, addend: 0x0, symName: __ZNKSt3__16chrono15__duration_castINS0_8durationIxNS_5ratioILl1ELl1000EEEEENS2_IeS4_EENS3_ILl1ELl1EEELb1ELb1EEclB7v160006ERKS5_, symObjAddr: 0x229C, symBinAddr: 0x1000034F8, symSize: 0x44 }
  - { offsetInCU: 0xA682, offset: 0xA682, size: 0x8, addend: 0x0, symName: __ZNSt3__16chrono8durationIeNS_5ratioILl1ELl1000EEEEC1B7v160006IeEERKT_PNS_9enable_ifIXaasr14is_convertibleIS8_eEE5valueooL_ZNS_17integral_constantIbLb1EE5valueEEntsr23treat_as_floating_pointIS6_EE5valueEvE4typeE, symObjAddr: 0x22E0, symBinAddr: 0x10000353C, symSize: 0x3C }
  - { offsetInCU: 0xA6CE, offset: 0xA6CE, size: 0x8, addend: 0x0, symName: __ZNSt3__16chrono8durationIeNS_5ratioILl1ELl1000EEEEC2B7v160006IeEERKT_PNS_9enable_ifIXaasr14is_convertibleIS8_eEE5valueooL_ZNS_17integral_constantIbLb1EE5valueEEntsr23treat_as_floating_pointIS6_EE5valueEvE4typeE, symObjAddr: 0x231C, symBinAddr: 0x100003578, symSize: 0x28 }
  - { offsetInCU: 0xA71A, offset: 0xA71A, size: 0x8, addend: 0x0, symName: __ZNSt3__16chrono8durationIeNS_5ratioILl1ELl1000EEEEC2B7v160006IeNS2_ILl1ELl1EEEEERKNS1_IT_T0_EEPNS_9enable_ifIXaasr13__no_overflowIS8_S3_EE5valueooL_ZNS_17integral_constantIbLb1EE5valueEEaaeqsr13__no_overflowIS8_S3_E4typeE3denLi1Entsr23treat_as_floating_pointIS7_EE5valueEvE4typeE, symObjAddr: 0x2344, symBinAddr: 0x1000035A0, symSize: 0x48 }
  - { offsetInCU: 0xA770, offset: 0xA770, size: 0x8, addend: 0x0, symName: __ZNKSt3__16chrono8durationIeNS_5ratioILl1ELl1EEEE5countB7v160006Ev, symObjAddr: 0x2408, symBinAddr: 0x100003664, symSize: 0x18 }
  - { offsetInCU: 0xA795, offset: 0xA795, size: 0x8, addend: 0x0, symName: __ZNSt3__16chrono8durationIxNS_5ratioILl1ELl1000000000EEEEC1B7v160006IxEERKT_PNS_9enable_ifIXaasr14is_convertibleIS8_xEE5valueooL_ZNS_17integral_constantIbLb0EE5valueEEntsr23treat_as_floating_pointIS6_EE5valueEvE4typeE, symObjAddr: 0x246C, symBinAddr: 0x1000036C8, symSize: 0x3C }
  - { offsetInCU: 0xA7E1, offset: 0xA7E1, size: 0x8, addend: 0x0, symName: __ZNSt3__16chrono8durationIxNS_5ratioILl1ELl1000000000EEEEC2B7v160006IxEERKT_PNS_9enable_ifIXaasr14is_convertibleIS8_xEE5valueooL_ZNS_17integral_constantIbLb0EE5valueEEntsr23treat_as_floating_pointIS6_EE5valueEvE4typeE, symObjAddr: 0x24A8, symBinAddr: 0x100003704, symSize: 0x28 }
  - { offsetInCU: 0xA82D, offset: 0xA82D, size: 0x8, addend: 0x0, symName: __ZNKSt3__16chrono8durationIxNS_5ratioILl1ELl1000000000EEEE5countB7v160006Ev, symObjAddr: 0x253C, symBinAddr: 0x100003798, symSize: 0x18 }
  - { offsetInCU: 0xA852, offset: 0xA852, size: 0x8, addend: 0x0, symName: __ZNSt3__16chrono8durationIxNS_5ratioILl1ELl1000000000EEEEC1B7v160006IxNS2_ILl1ELl1000EEEEERKNS1_IT_T0_EEPNS_9enable_ifIXaasr13__no_overflowIS8_S3_EE5valueooL_ZNS_17integral_constantIbLb0EE5valueEEaaeqsr13__no_overflowIS8_S3_E4typeE3denLi1Entsr23treat_as_floating_pointIS7_EE5valueEvE4typeE, symObjAddr: 0x2554, symBinAddr: 0x1000037B0, symSize: 0x3C }
  - { offsetInCU: 0xA8A8, offset: 0xA8A8, size: 0x8, addend: 0x0, symName: __ZNSt3__16chrono8durationIxNS_5ratioILl1ELl1000000000EEEEC2B7v160006IxNS2_ILl1ELl1000EEEEERKNS1_IT_T0_EEPNS_9enable_ifIXaasr13__no_overflowIS8_S3_EE5valueooL_ZNS_17integral_constantIbLb0EE5valueEEaaeqsr13__no_overflowIS8_S3_E4typeE3denLi1Entsr23treat_as_floating_pointIS7_EE5valueEvE4typeE, symObjAddr: 0x2590, symBinAddr: 0x1000037EC, symSize: 0x50 }
  - { offsetInCU: 0xA8FE, offset: 0xA8FE, size: 0x8, addend: 0x0, symName: __ZNSt3__16chrono15duration_valuesIxE3maxB7v160006Ev, symObjAddr: 0x25E0, symBinAddr: 0x10000383C, symSize: 0x14 }
  - { offsetInCU: 0xA912, offset: 0xA912, size: 0x8, addend: 0x0, symName: __ZNSt3__114numeric_limitsIxE3maxB7v160006Ev, symObjAddr: 0x25F4, symBinAddr: 0x100003850, symSize: 0x14 }
  - { offsetInCU: 0xA926, offset: 0xA926, size: 0x8, addend: 0x0, symName: __ZNSt3__123__libcpp_numeric_limitsIxLb1EE3maxB7v160006Ev, symObjAddr: 0x2608, symBinAddr: 0x100003864, symSize: 0x8 }
  - { offsetInCU: 0xA9CC, offset: 0xA9CC, size: 0x8, addend: 0x0, symName: __ZNKSt3__113basic_istreamIcNS_11char_traitsIcEEE6sentrycvbB7v160006Ev, symObjAddr: 0x2610, symBinAddr: 0x10000386C, symSize: 0x1C }
  - { offsetInCU: 0xA9F0, offset: 0xA9F0, size: 0x8, addend: 0x0, symName: __ZNSt3__115basic_streambufIcNS_11char_traitsIcEEE6sbumpcB7v160006Ev, symObjAddr: 0x262C, symBinAddr: 0x100003888, symSize: 0x78 }
  - { offsetInCU: 0xAA15, offset: 0xAA15, size: 0x8, addend: 0x0, symName: __ZNSt3__111char_traitsIcE12to_char_typeEi, symObjAddr: 0x26A4, symBinAddr: 0x100003900, symSize: 0x18 }
  - { offsetInCU: 0xAA38, offset: 0xAA38, size: 0x8, addend: 0x0, symName: __ZNSt3__18ios_base18__setstate_nothrowB7v160006Ej, symObjAddr: 0x26BC, symBinAddr: 0x100003918, symSize: 0x64 }
  - { offsetInCU: 0xAA6B, offset: 0xAA6B, size: 0x8, addend: 0x0, symName: __ZNKSt3__19basic_iosIcNS_11char_traitsIcEEE10exceptionsB7v160006Ev, symObjAddr: 0x2720, symBinAddr: 0x10000397C, symSize: 0x24 }
  - { offsetInCU: 0xAA90, offset: 0xAA90, size: 0x8, addend: 0x0, symName: __ZNSt3__111char_traitsIcE11to_int_typeEc, symObjAddr: 0x2744, symBinAddr: 0x1000039A0, symSize: 0x14 }
  - { offsetInCU: 0xAAB3, offset: 0xAAB3, size: 0x8, addend: 0x0, symName: __ZNKSt3__18ios_base10exceptionsB7v160006Ev, symObjAddr: 0x2758, symBinAddr: 0x1000039B4, symSize: 0x18 }
...
